target datalayout = "e-m:e-p270:32:32-p271:32:32-p272:64:64-i64:64-i128:128-f80:128-n8:16:32:64-S128"
target triple = "x86_64-pc-linux-gnu"

%"class.LIEF::PE::FunctionOverride" = type { %"class.LIEF::PE::DynamicFixup.base", %"class.std::vector.38", %"class.std::vector.43" }
%"class.LIEF::PE::DynamicFixup.base" = type <{ ptr, i32 }>
%"class.std::vector.38" = type { %"struct.std::_Vector_base.39" }
%"struct.std::_Vector_base.39" = type { %"struct.std::_Vector_base<std::unique_ptr<LIEF::PE::FunctionOverrideInfo>, std::allocator<std::unique_ptr<LIEF::PE::FunctionOverrideInfo>>>::_Vector_impl" }
%"struct.std::_Vector_base<std::unique_ptr<LIEF::PE::FunctionOverrideInfo>, std::allocator<std::unique_ptr<LIEF::PE::FunctionOverrideInfo>>>::_Vector_impl" = type { %"struct.std::_Vector_base<std::unique_ptr<LIEF::PE::FunctionOverrideInfo>, std::allocator<std::unique_ptr<LIEF::PE::FunctionOverrideInfo>>>::_Vector_impl_data" }
%"struct.std::_Vector_base<std::unique_ptr<LIEF::PE::FunctionOverrideInfo>, std::allocator<std::unique_ptr<LIEF::PE::FunctionOverrideInfo>>>::_Vector_impl_data" = type { ptr, ptr, ptr }
%"class.std::vector.43" = type { %"struct.std::_Vector_base.44" }
%"struct.std::_Vector_base.44" = type { %"struct.std::_Vector_base<LIEF::PE::FunctionOverride::image_bdd_info_t, std::allocator<LIEF::PE::FunctionOverride::image_bdd_info_t>>::_Vector_impl" }
%"struct.std::_Vector_base<LIEF::PE::FunctionOverride::image_bdd_info_t, std::allocator<LIEF::PE::FunctionOverride::image_bdd_info_t>>::_Vector_impl" = type { %"struct.std::_Vector_base<LIEF::PE::FunctionOverride::image_bdd_info_t, std::allocator<LIEF::PE::FunctionOverride::image_bdd_info_t>>::_Vector_impl_data" }
%"struct.std::_Vector_base<LIEF::PE::FunctionOverride::image_bdd_info_t, std::allocator<LIEF::PE::FunctionOverride::image_bdd_info_t>>::_Vector_impl_data" = type { ptr, ptr, ptr }
%"class.LIEF::PE::DynamicFixup" = type <{ ptr, i32, [4 x i8] }>

@_ZTVN4LIEF2PE12DynamicFixupE = linkonce_odr unnamed_addr constant { [6 x ptr] } { [6 x ptr] [ptr null, ptr @_ZTIN4LIEF2PE12DynamicFixupE, ptr @__cxa_pure_virtual, ptr @__cxa_pure_virtual, ptr @_ZN4LIEF2PE12DynamicFixupD2Ev, ptr @_ZN4LIEF2PE12DynamicFixupD0Ev] }, comdat, align 8

; Function Attrs: mustprogress nounwind uwtable
define linkonce_odr hidden void @_ZNSt15__new_allocatorIN4LIEF2PE16FunctionOverride16image_bdd_info_tEEC2ERKS4_(ptr noundef nonnull align 1 dereferenceable(1) %0, ptr noundef nonnull align 1 dereferenceable(1) %1) unnamed_addr #1 comdat align 2 {
  %3 = alloca ptr, align 8
  %4 = alloca ptr, align 8
  store ptr %0, ptr %3, align 8, !tbaa !181
  store ptr %1, ptr %4, align 8, !tbaa !181
  ret void
}

; Function Attrs: mustprogress nounwind uwtable
define linkonce_odr hidden void @_ZNSt15__new_allocatorISt10unique_ptrIN4LIEF2PE20FunctionOverrideInfoESt14default_deleteIS3_EEEC2ERKS7_(ptr noundef nonnull align 1 dereferenceable(1) %0, ptr noundef nonnull align 1 dereferenceable(1) %1) unnamed_addr #1 comdat align 2 {
  %3 = alloca ptr, align 8
  %4 = alloca ptr, align 8
  store ptr %0, ptr %3, align 8, !tbaa !173
  store ptr %1, ptr %4, align 8, !tbaa !173
  ret void
}

; Function Attrs: mustprogress nounwind uwtable
define linkonce_odr hidden void @_ZNSt12_Vector_baseIN4LIEF2PE16FunctionOverride16image_bdd_info_tESaIS3_EE17_Vector_impl_dataC2EOS6_(ptr noundef nonnull align 8 dereferenceable(24) %0, ptr noundef nonnull align 8 dereferenceable(24) %1) unnamed_addr #1 comdat align 2 {
  %3 = alloca ptr, align 8
  %4 = alloca ptr, align 8
  store ptr %0, ptr %3, align 8, !tbaa !185
  store ptr %1, ptr %4, align 8, !tbaa !185
  %5 = load ptr, ptr %3, align 8
  %6 = getelementptr inbounds nuw %"struct.std::_Vector_base<LIEF::PE::FunctionOverride::image_bdd_info_t, std::allocator<LIEF::PE::FunctionOverride::image_bdd_info_t>>::_Vector_impl_data", ptr %5, i32 0, i32 0
  %7 = load ptr, ptr %4, align 8, !tbaa !185
  %8 = getelementptr inbounds nuw %"struct.std::_Vector_base<LIEF::PE::FunctionOverride::image_bdd_info_t, std::allocator<LIEF::PE::FunctionOverride::image_bdd_info_t>>::_Vector_impl_data", ptr %7, i32 0, i32 0
  %9 = load ptr, ptr %8, align 8, !tbaa !29
  store ptr %9, ptr %6, align 8, !tbaa !29
  %10 = getelementptr inbounds nuw %"struct.std::_Vector_base<LIEF::PE::FunctionOverride::image_bdd_info_t, std::allocator<LIEF::PE::FunctionOverride::image_bdd_info_t>>::_Vector_impl_data", ptr %5, i32 0, i32 1
  %11 = load ptr, ptr %4, align 8, !tbaa !185
  %12 = getelementptr inbounds nuw %"struct.std::_Vector_base<LIEF::PE::FunctionOverride::image_bdd_info_t, std::allocator<LIEF::PE::FunctionOverride::image_bdd_info_t>>::_Vector_impl_data", ptr %11, i32 0, i32 1
  %13 = load ptr, ptr %12, align 8, !tbaa !32
  store ptr %13, ptr %10, align 8, !tbaa !32
  %14 = getelementptr inbounds nuw %"struct.std::_Vector_base<LIEF::PE::FunctionOverride::image_bdd_info_t, std::allocator<LIEF::PE::FunctionOverride::image_bdd_info_t>>::_Vector_impl_data", ptr %5, i32 0, i32 2
  %15 = load ptr, ptr %4, align 8, !tbaa !185
  %16 = getelementptr inbounds nuw %"struct.std::_Vector_base<LIEF::PE::FunctionOverride::image_bdd_info_t, std::allocator<LIEF::PE::FunctionOverride::image_bdd_info_t>>::_Vector_impl_data", ptr %15, i32 0, i32 2
  %17 = load ptr, ptr %16, align 8, !tbaa !42
  store ptr %17, ptr %14, align 8, !tbaa !42
  %18 = load ptr, ptr %4, align 8, !tbaa !185
  %19 = getelementptr inbounds nuw %"struct.std::_Vector_base<LIEF::PE::FunctionOverride::image_bdd_info_t, std::allocator<LIEF::PE::FunctionOverride::image_bdd_info_t>>::_Vector_impl_data", ptr %18, i32 0, i32 2
  store ptr null, ptr %19, align 8, !tbaa !42
  %20 = load ptr, ptr %4, align 8, !tbaa !185
  %21 = getelementptr inbounds nuw %"struct.std::_Vector_base<LIEF::PE::FunctionOverride::image_bdd_info_t, std::allocator<LIEF::PE::FunctionOverride::image_bdd_info_t>>::_Vector_impl_data", ptr %20, i32 0, i32 1
  store ptr null, ptr %21, align 8, !tbaa !32
  %22 = load ptr, ptr %4, align 8, !tbaa !185
  %23 = getelementptr inbounds nuw %"struct.std::_Vector_base<LIEF::PE::FunctionOverride::image_bdd_info_t, std::allocator<LIEF::PE::FunctionOverride::image_bdd_info_t>>::_Vector_impl_data", ptr %22, i32 0, i32 0
  store ptr null, ptr %23, align 8, !tbaa !29
  ret void
}

; Function Attrs: mustprogress nounwind uwtable
define linkonce_odr hidden void @_ZNSaIN4LIEF2PE16FunctionOverride16image_bdd_info_tEEC2ERKS3_(ptr noundef nonnull align 1 dereferenceable(1) %0, ptr noundef nonnull align 1 dereferenceable(1) %1) unnamed_addr #1 comdat align 2 {
  %3 = alloca ptr, align 8
  %4 = alloca ptr, align 8
  store ptr %0, ptr %3, align 8, !tbaa !179
  store ptr %1, ptr %4, align 8, !tbaa !179
  %5 = load ptr, ptr %3, align 8
  %6 = load ptr, ptr %4, align 8, !tbaa !179
  call void @_ZNSt15__new_allocatorIN4LIEF2PE16FunctionOverride16image_bdd_info_tEEC2ERKS4_(ptr noundef nonnull align 1 dereferenceable(1) %5, ptr noundef nonnull align 1 dereferenceable(1) %6) #21
  ret void
}

; Function Attrs: mustprogress nounwind uwtable
define linkonce_odr hidden void @_ZNSt12_Vector_baseISt10unique_ptrIN4LIEF2PE20FunctionOverrideInfoESt14default_deleteIS3_EESaIS6_EE17_Vector_impl_dataC2EOS9_(ptr noundef nonnull align 8 dereferenceable(24) %0, ptr noundef nonnull align 8 dereferenceable(24) %1) unnamed_addr #1 comdat align 2 {
  %3 = alloca ptr, align 8
  %4 = alloca ptr, align 8
  store ptr %0, ptr %3, align 8, !tbaa !183
  store ptr %1, ptr %4, align 8, !tbaa !183
  %5 = load ptr, ptr %3, align 8
  %6 = getelementptr inbounds nuw %"struct.std::_Vector_base<std::unique_ptr<LIEF::PE::FunctionOverrideInfo>, std::allocator<std::unique_ptr<LIEF::PE::FunctionOverrideInfo>>>::_Vector_impl_data", ptr %5, i32 0, i32 0
  %7 = load ptr, ptr %4, align 8, !tbaa !183
  %8 = getelementptr inbounds nuw %"struct.std::_Vector_base<std::unique_ptr<LIEF::PE::FunctionOverrideInfo>, std::allocator<std::unique_ptr<LIEF::PE::FunctionOverrideInfo>>>::_Vector_impl_data", ptr %7, i32 0, i32 0
  %9 = load ptr, ptr %8, align 8, !tbaa !35
  store ptr %9, ptr %6, align 8, !tbaa !35
  %10 = getelementptr inbounds nuw %"struct.std::_Vector_base<std::unique_ptr<LIEF::PE::FunctionOverrideInfo>, std::allocator<std::unique_ptr<LIEF::PE::FunctionOverrideInfo>>>::_Vector_impl_data", ptr %5, i32 0, i32 1
  %11 = load ptr, ptr %4, align 8, !tbaa !183
  %12 = getelementptr inbounds nuw %"struct.std::_Vector_base<std::unique_ptr<LIEF::PE::FunctionOverrideInfo>, std::allocator<std::unique_ptr<LIEF::PE::FunctionOverrideInfo>>>::_Vector_impl_data", ptr %11, i32 0, i32 1
  %13 = load ptr, ptr %12, align 8, !tbaa !37
  store ptr %13, ptr %10, align 8, !tbaa !37
  %14 = getelementptr inbounds nuw %"struct.std::_Vector_base<std::unique_ptr<LIEF::PE::FunctionOverrideInfo>, std::allocator<std::unique_ptr<LIEF::PE::FunctionOverrideInfo>>>::_Vector_impl_data", ptr %5, i32 0, i32 2
  %15 = load ptr, ptr %4, align 8, !tbaa !183
  %16 = getelementptr inbounds nuw %"struct.std::_Vector_base<std::unique_ptr<LIEF::PE::FunctionOverrideInfo>, std::allocator<std::unique_ptr<LIEF::PE::FunctionOverrideInfo>>>::_Vector_impl_data", ptr %15, i32 0, i32 2
  %17 = load ptr, ptr %16, align 8, !tbaa !38
  store ptr %17, ptr %14, align 8, !tbaa !38
  %18 = load ptr, ptr %4, align 8, !tbaa !183
  %19 = getelementptr inbounds nuw %"struct.std::_Vector_base<std::unique_ptr<LIEF::PE::FunctionOverrideInfo>, std::allocator<std::unique_ptr<LIEF::PE::FunctionOverrideInfo>>>::_Vector_impl_data", ptr %18, i32 0, i32 2
  store ptr null, ptr %19, align 8, !tbaa !38
  %20 = load ptr, ptr %4, align 8, !tbaa !183
  %21 = getelementptr inbounds nuw %"struct.std::_Vector_base<std::unique_ptr<LIEF::PE::FunctionOverrideInfo>, std::allocator<std::unique_ptr<LIEF::PE::FunctionOverrideInfo>>>::_Vector_impl_data", ptr %20, i32 0, i32 1
  store ptr null, ptr %21, align 8, !tbaa !37
  %22 = load ptr, ptr %4, align 8, !tbaa !183
  %23 = getelementptr inbounds nuw %"struct.std::_Vector_base<std::unique_ptr<LIEF::PE::FunctionOverrideInfo>, std::allocator<std::unique_ptr<LIEF::PE::FunctionOverrideInfo>>>::_Vector_impl_data", ptr %22, i32 0, i32 0
  store ptr null, ptr %23, align 8, !tbaa !35
  ret void
}

; Function Attrs: mustprogress nounwind uwtable
define linkonce_odr hidden void @_ZNSaISt10unique_ptrIN4LIEF2PE20FunctionOverrideInfoESt14default_deleteIS2_EEEC2ERKS6_(ptr noundef nonnull align 1 dereferenceable(1) %0, ptr noundef nonnull align 1 dereferenceable(1) %1) unnamed_addr #1 comdat align 2 {
  %3 = alloca ptr, align 8
  %4 = alloca ptr, align 8
  store ptr %0, ptr %3, align 8, !tbaa !171
  store ptr %1, ptr %4, align 8, !tbaa !171
  %5 = load ptr, ptr %3, align 8
  %6 = load ptr, ptr %4, align 8, !tbaa !171
  call void @_ZNSt15__new_allocatorISt10unique_ptrIN4LIEF2PE20FunctionOverrideInfoESt14default_deleteIS3_EEEC2ERKS7_(ptr noundef nonnull align 1 dereferenceable(1) %5, ptr noundef nonnull align 1 dereferenceable(1) %6) #21
  ret void
}

; Function Attrs: mustprogress nounwind uwtable
define linkonce_odr hidden void @_ZNSt12_Vector_baseIN4LIEF2PE16FunctionOverride16image_bdd_info_tESaIS3_EE12_Vector_implC2EOS6_(ptr noundef nonnull align 8 dereferenceable(24) %0, ptr noundef nonnull align 8 dereferenceable(24) %1) unnamed_addr #1 comdat align 2 {
  %3 = alloca ptr, align 8
  %4 = alloca ptr, align 8
  store ptr %0, ptr %3, align 8, !tbaa !177
  store ptr %1, ptr %4, align 8, !tbaa !177
  %5 = load ptr, ptr %3, align 8
  %6 = load ptr, ptr %4, align 8, !tbaa !177
  call void @_ZNSaIN4LIEF2PE16FunctionOverride16image_bdd_info_tEEC2ERKS3_(ptr noundef nonnull align 1 dereferenceable(1) %5, ptr noundef nonnull align 1 dereferenceable(1) %6) #21
  %7 = load ptr, ptr %4, align 8, !tbaa !177
  call void @_ZNSt12_Vector_baseIN4LIEF2PE16FunctionOverride16image_bdd_info_tESaIS3_EE17_Vector_impl_dataC2EOS6_(ptr noundef nonnull align 8 dereferenceable(24) %5, ptr noundef nonnull align 8 dereferenceable(24) %7) #21
  ret void
}

; Function Attrs: mustprogress nounwind uwtable
define linkonce_odr hidden void @_ZNSt12_Vector_baseISt10unique_ptrIN4LIEF2PE20FunctionOverrideInfoESt14default_deleteIS3_EESaIS6_EE12_Vector_implC2EOS9_(ptr noundef nonnull align 8 dereferenceable(24) %0, ptr noundef nonnull align 8 dereferenceable(24) %1) unnamed_addr #1 comdat align 2 {
  %3 = alloca ptr, align 8
  %4 = alloca ptr, align 8
  store ptr %0, ptr %3, align 8, !tbaa !169
  store ptr %1, ptr %4, align 8, !tbaa !169
  %5 = load ptr, ptr %3, align 8
  %6 = load ptr, ptr %4, align 8, !tbaa !169
  call void @_ZNSaISt10unique_ptrIN4LIEF2PE20FunctionOverrideInfoESt14default_deleteIS2_EEEC2ERKS6_(ptr noundef nonnull align 1 dereferenceable(1) %5, ptr noundef nonnull align 1 dereferenceable(1) %6) #21
  %7 = load ptr, ptr %4, align 8, !tbaa !169
  call void @_ZNSt12_Vector_baseISt10unique_ptrIN4LIEF2PE20FunctionOverrideInfoESt14default_deleteIS3_EESaIS6_EE17_Vector_impl_dataC2EOS9_(ptr noundef nonnull align 8 dereferenceable(24) %5, ptr noundef nonnull align 8 dereferenceable(24) %7) #21
  ret void
}

; Function Attrs: mustprogress nounwind uwtable
define linkonce_odr hidden void @_ZNSt12_Vector_baseIN4LIEF2PE16FunctionOverride16image_bdd_info_tESaIS3_EEC2EOS5_(ptr noundef nonnull align 8 dereferenceable(24) %0, ptr noundef nonnull align 8 dereferenceable(24) %1) unnamed_addr #1 comdat align 2 {
  %3 = alloca ptr, align 8
  %4 = alloca ptr, align 8
  store ptr %0, ptr %3, align 8, !tbaa !175
  store ptr %1, ptr %4, align 8, !tbaa !175
  %5 = load ptr, ptr %3, align 8
  %6 = getelementptr inbounds nuw %"struct.std::_Vector_base.44", ptr %5, i32 0, i32 0
  %7 = load ptr, ptr %4, align 8, !tbaa !175
  %8 = getelementptr inbounds nuw %"struct.std::_Vector_base.44", ptr %7, i32 0, i32 0
  call void @_ZNSt12_Vector_baseIN4LIEF2PE16FunctionOverride16image_bdd_info_tESaIS3_EE12_Vector_implC2EOS6_(ptr noundef nonnull align 8 dereferenceable(24) %6, ptr noundef nonnull align 8 dereferenceable(24) %8) #21
  ret void
}

; Function Attrs: mustprogress nounwind uwtable
define linkonce_odr hidden void @_ZNSt12_Vector_baseISt10unique_ptrIN4LIEF2PE20FunctionOverrideInfoESt14default_deleteIS3_EESaIS6_EEC2EOS8_(ptr noundef nonnull align 8 dereferenceable(24) %0, ptr noundef nonnull align 8 dereferenceable(24) %1) unnamed_addr #1 comdat align 2 {
  %3 = alloca ptr, align 8
  %4 = alloca ptr, align 8
  store ptr %0, ptr %3, align 8, !tbaa !167
  store ptr %1, ptr %4, align 8, !tbaa !167
  %5 = load ptr, ptr %3, align 8
  %6 = getelementptr inbounds nuw %"struct.std::_Vector_base.39", ptr %5, i32 0, i32 0
  %7 = load ptr, ptr %4, align 8, !tbaa !167
  %8 = getelementptr inbounds nuw %"struct.std::_Vector_base.39", ptr %7, i32 0, i32 0
  call void @_ZNSt12_Vector_baseISt10unique_ptrIN4LIEF2PE20FunctionOverrideInfoESt14default_deleteIS3_EESaIS6_EE12_Vector_implC2EOS9_(ptr noundef nonnull align 8 dereferenceable(24) %6, ptr noundef nonnull align 8 dereferenceable(24) %8) #21
  ret void
}

; Function Attrs: mustprogress nounwind uwtable
define linkonce_odr hidden void @_ZNSt6vectorIN4LIEF2PE16FunctionOverride16image_bdd_info_tESaIS3_EEC2EOS5_(ptr noundef nonnull align 8 dereferenceable(24) %0, ptr noundef nonnull align 8 dereferenceable(24) %1) unnamed_addr #1 comdat align 2 {
  %3 = alloca ptr, align 8
  %4 = alloca ptr, align 8
  store ptr %0, ptr %3, align 8, !tbaa !27
  store ptr %1, ptr %4, align 8, !tbaa !27
  %5 = load ptr, ptr %3, align 8
  %6 = load ptr, ptr %4, align 8, !tbaa !27
  call void @_ZNSt12_Vector_baseIN4LIEF2PE16FunctionOverride16image_bdd_info_tESaIS3_EEC2EOS5_(ptr noundef nonnull align 8 dereferenceable(24) %5, ptr noundef nonnull align 8 dereferenceable(24) %6) #21
  ret void
}

; Function Attrs: mustprogress nounwind uwtable
define linkonce_odr hidden void @_ZNSt6vectorISt10unique_ptrIN4LIEF2PE20FunctionOverrideInfoESt14default_deleteIS3_EESaIS6_EEC2EOS8_(ptr noundef nonnull align 8 dereferenceable(24) %0, ptr noundef nonnull align 8 dereferenceable(24) %1) unnamed_addr #1 comdat align 2 {
  %3 = alloca ptr, align 8
  %4 = alloca ptr, align 8
  store ptr %0, ptr %3, align 8, !tbaa !25
  store ptr %1, ptr %4, align 8, !tbaa !25
  %5 = load ptr, ptr %3, align 8
  %6 = load ptr, ptr %4, align 8, !tbaa !25
  call void @_ZNSt12_Vector_baseISt10unique_ptrIN4LIEF2PE20FunctionOverrideInfoESt14default_deleteIS3_EESaIS6_EEC2EOS8_(ptr noundef nonnull align 8 dereferenceable(24) %5, ptr noundef nonnull align 8 dereferenceable(24) %6) #21
  ret void
}

; Function Attrs: mustprogress nounwind uwtable
define linkonce_odr hidden void @_ZN4LIEF2PE12DynamicFixupC2EOS1_(ptr noundef nonnull align 8 dereferenceable(12) %0, ptr noundef nonnull align 8 dereferenceable(12) %1) unnamed_addr #1 comdat align 2 {
  %3 = alloca ptr, align 8
  %4 = alloca ptr, align 8
  store ptr %0, ptr %3, align 8, !tbaa !19
  store ptr %1, ptr %4, align 8, !tbaa !19
  %5 = load ptr, ptr %3, align 8
  store ptr getelementptr inbounds inrange(-16, 32) ({ [6 x ptr] }, ptr @_ZTVN4LIEF2PE12DynamicFixupE, i32 0, i32 0, i32 2), ptr %5, align 8, !tbaa !17
  %6 = getelementptr inbounds nuw %"class.LIEF::PE::DynamicFixup", ptr %5, i32 0, i32 1
  %7 = load ptr, ptr %4, align 8, !tbaa !19
  %8 = getelementptr inbounds nuw %"class.LIEF::PE::DynamicFixup", ptr %7, i32 0, i32 1
  %9 = load i32, ptr %8, align 8, !tbaa !23
  store i32 %9, ptr %6, align 8, !tbaa !23
  ret void
}

; Function Attrs: mustprogress nounwind uwtable
define void @_ZN4LIEF2PE16FunctionOverrideC2EOS1_(ptr noundef nonnull align 8 dereferenceable(64) %0, ptr noundef nonnull align 8 dereferenceable(64) %1) unnamed_addr #1 align 2 {
  %3 = alloca ptr, align 8
  %4 = alloca ptr, align 8
  store ptr %0, ptr %3, align 8, !tbaa !15
  store ptr %1, ptr %4, align 8, !tbaa !15
  %5 = load ptr, ptr %3, align 8
  %6 = load ptr, ptr %4, align 8, !tbaa !15
  call void @_ZN4LIEF2PE12DynamicFixupC2EOS1_(ptr noundef nonnull align 8 dereferenceable(12) %5, ptr noundef nonnull align 8 dereferenceable(12) %6) #21
  store ptr getelementptr inbounds inrange(-16, 32) ({ [6 x ptr] }, ptr @_ZTVN4LIEF2PE16FunctionOverrideE, i32 0, i32 0, i32 2), ptr %5, align 8, !tbaa !17
  %7 = getelementptr inbounds nuw %"class.LIEF::PE::FunctionOverride", ptr %5, i32 0, i32 1
  %8 = load ptr, ptr %4, align 8, !tbaa !15
  %9 = getelementptr inbounds nuw %"class.LIEF::PE::FunctionOverride", ptr %8, i32 0, i32 1
  call void @_ZNSt6vectorISt10unique_ptrIN4LIEF2PE20FunctionOverrideInfoESt14default_deleteIS3_EESaIS6_EEC2EOS8_(ptr noundef nonnull align 8 dereferenceable(24) %7, ptr noundef nonnull align 8 dereferenceable(24) %9) #21
  %10 = getelementptr inbounds nuw %"class.LIEF::PE::FunctionOverride", ptr %5, i32 0, i32 2
  %11 = load ptr, ptr %4, align 8, !tbaa !15
  %12 = getelementptr inbounds nuw %"class.LIEF::PE::FunctionOverride", ptr %11, i32 0, i32 2
  call void @_ZNSt6vectorIN4LIEF2PE16FunctionOverride16image_bdd_info_tESaIS3_EEC2EOS5_(ptr noundef nonnull align 8 dereferenceable(24) %10, ptr noundef nonnull align 8 dereferenceable(24) %12) #21
  ret void
}