; Function Attrs: mustprogress nofree norecurse nosync nounwind willreturn memory(argmem: readwrite) uwtable
define void @_ZN4LIEF2PE16FunctionOverrideC2EOS1_(ptr noundef nonnull writeonly align 8 captures(none) dereferenceable(64) initializes((0, 12), (16, 64)) %0, ptr noundef nonnull align 8 captures(none) dereferenceable(64) %1) unnamed_addr #3 align 2 {
  %3 = getelementptr inbounds nuw i8, ptr %0, i64 8
  %4 = getelementptr inbounds nuw i8, ptr %1, i64 8
  %5 = load i32, ptr %4, align 8, !tbaa !3
  store i32 %5, ptr %3, align 8, !tbaa !3
  store ptr getelementptr inbounds nuw inrange(-16, 32) (i8, ptr @_ZTVN4LIEF2PE16FunctionOverrideE, i64 16), ptr %0, align 8, !tbaa !8
  %6 = getelementptr inbounds nuw i8, ptr %0, i64 16
  %7 = getelementptr inbounds nuw i8, ptr %1, i64 16
  %8 = load ptr, ptr %7, align 8, !tbaa !22
  store ptr %8, ptr %6, align 8, !tbaa !22
  %9 = getelementptr inbounds nuw i8, ptr %0, i64 24
  %10 = getelementptr inbounds nuw i8, ptr %1, i64 24
  %11 = load ptr, ptr %10, align 8, !tbaa !23
  store ptr %11, ptr %9, align 8, !tbaa !23
  %12 = getelementptr inbounds nuw i8, ptr %0, i64 32
  %13 = getelementptr inbounds nuw i8, ptr %1, i64 32
  %14 = load ptr, ptr %13, align 8, !tbaa !20
  store ptr %14, ptr %12, align 8, !tbaa !20
  tail call void @llvm.memset.p0.i64(ptr noundef nonnull align 8 dereferenceable(24) %7, i8 0, i64 24, i1 false)
  %15 = getelementptr inbounds nuw i8, ptr %0, i64 40
  %16 = getelementptr inbounds nuw i8, ptr %1, i64 40
  %17 = load ptr, ptr %16, align 8, !tbaa !14
  store ptr %17, ptr %15, align 8, !tbaa !14
  %18 = getelementptr inbounds nuw i8, ptr %0, i64 48
  %19 = getelementptr inbounds nuw i8, ptr %1, i64 48
  %20 = load ptr, ptr %19, align 8, !tbaa !10
  store ptr %20, ptr %18, align 8, !tbaa !10
  %21 = getelementptr inbounds nuw i8, ptr %0, i64 56
  %22 = getelementptr inbounds nuw i8, ptr %1, i64 56
  %23 = load ptr, ptr %22, align 8, !tbaa !16
  store ptr %23, ptr %21, align 8, !tbaa !16
  tail call void @llvm.memset.p0.i64(ptr noundef nonnull align 8 dereferenceable(24) %16, i8 0, i64 24, i1 false)
  ret void
}